target datalayout = "e-m:e-p270:32:32-p271:32:32-p272:64:64-i64:64-i128:128-f80:128-n8:16:32:64-S128"
target triple = "x86_64-pc-linux-gnu"

; Function Attrs: nounwind uwtable
define internal ptr @_random_Random_random_impl(ptr noundef %0) #0 {
  %2 = alloca ptr, align 8
  %3 = alloca i32, align 4
  %4 = alloca i32, align 4
  store ptr %0, ptr %2, align 8, !tbaa !8
  call void @llvm.lifetime.start.p0(i64 4, ptr %3) #7
  %5 = load ptr, ptr %2, align 8, !tbaa !8
  %6 = call i32 @genrand_uint32(ptr noundef %5)
  %7 = lshr i32 %6, 5
  store i32 %7, ptr %3, align 4, !tbaa !11
  call void @llvm.lifetime.start.p0(i64 4, ptr %4) #7
  %8 = load ptr, ptr %2, align 8, !tbaa !8
  %9 = call i32 @genrand_uint32(ptr noundef %8)
  %10 = lshr i32 %9, 6
  store i32 %10, ptr %4, align 4, !tbaa !11
  %11 = load i32, ptr %3, align 4, !tbaa !11
  %12 = uitofp i32 %11 to double
  %13 = load i32, ptr %4, align 4, !tbaa !11
  %14 = uitofp i32 %13 to double
  %15 = call double @llvm.fmuladd.f64(double %12, double 0x4190000000000000, double %14)
  %16 = fmul double %15, 0x3CA0000000000000
  %17 = call ptr @PyFloat_FromDouble(double noundef %16)
  call void @llvm.lifetime.end.p0(i64 4, ptr %4) #7
  call void @llvm.lifetime.end.p0(i64 4, ptr %3) #7
  ret ptr %17
}

; Function Attrs: nounwind uwtable
define internal ptr @_random_Random_random(ptr noundef %0, ptr noundef %1) #0 {
  %3 = alloca ptr, align 8
  %4 = alloca ptr, align 8
  %5 = alloca ptr, align 8
  store ptr %0, ptr %3, align 8, !tbaa !3
  store ptr %1, ptr %4, align 8, !tbaa !3
  call void @llvm.lifetime.start.p0(i64 8, ptr %5) #7
  store ptr null, ptr %5, align 8, !tbaa !3
  %6 = load ptr, ptr %3, align 8, !tbaa !3
  %7 = call ptr @_random_Random_random_impl(ptr noundef %6)
  store ptr %7, ptr %5, align 8, !tbaa !3
  %8 = load ptr, ptr %5, align 8, !tbaa !3
  call void @llvm.lifetime.end.p0(i64 8, ptr %5) #7
  ret ptr %8
}