; Function Attrs: nounwind uwtable
define internal ptr @_random_Random_random(ptr noundef captures(none) %0, ptr readnone captures(none) %1) #0 {
  %3 = tail call fastcc i32 @genrand_uint32(ptr noundef %0)
  %4 = lshr i32 %3, 5
  %5 = tail call fastcc i32 @genrand_uint32(ptr noundef %0)
  %6 = lshr i32 %5, 6
  %7 = uitofp nneg i32 %4 to double
  %8 = uitofp nneg i32 %6 to double
  %9 = tail call double @llvm.fmuladd.f64(double %7, double 0x4190000000000000, double %8)
  %10 = fmul double %9, 0x3CA0000000000000
  %11 = tail call ptr @PyFloat_FromDouble(double noundef %10) #8
  ret ptr %11
}